; Function Attrs: nounwind uwtable
define internal fastcc void @X11_DispatchFocusIn(ptr noundef %0, ptr noundef nonnull readonly captures(none) %1) unnamed_addr #1 {
  %3 = load ptr, ptr %1, align 8
  %4 = tail call zeroext i1 @SDL_SetKeyboardFocus(ptr noundef %3) #12
  tail call void @X11_ReconcileKeyboardState(ptr noundef %0)
  %5 = getelementptr inbounds nuw i8, ptr %1, i64 88
  %6 = load ptr, ptr %5, align 8
  %.not = icmp eq ptr %6, null
  br i1 %.not, label %9, label %7

7:                                                ; preds = %2
  %8 = load ptr, ptr @X11_XSetICFocus, align 8
  tail call void %8(ptr noundef nonnull %6) #12
  br label %9

9:                                                ; preds = %7, %2
  %10 = getelementptr inbounds nuw i8, ptr %1, i64 368
  %11 = load i8, ptr %10, align 8, !range !3, !noundef !4
  %12 = trunc nuw i8 %11 to i1
  br i1 %12, label %13, label %16

13:                                               ; preds = %9
  %14 = load ptr, ptr %1, align 8
  %15 = tail call zeroext i1 @X11_FlashWindow(ptr noundef %0, ptr noundef %14, i32 noundef 0) #12
  br label %16

16:                                               ; preds = %13, %9
  ret void
}